(lp0
(iRSSItem
Item
p1
(dp2
S'link'
p3
S'http://bato.to/read/_/280209/blood-lad_v9_ch43'
p4
sS'name'
p5
S'Blood Lad - English - Vol.9 Ch.43 Read Online'
p6
sba(iRSSItem
Item
p7
(dp8
g3
S'http://bato.to/read/_/280803/blood-lad_v9_ch44'
p9
sg5
S'Blood Lad - English - Vol.9 Ch.44 Read Online'
p10
sba(iRSSItem
Item
p11
(dp12
g3
S'http://bato.to/read/_/281302/chat_v4_ch16'
p13
sg5
S'Chat - English - Vol.4 Ch.16 Read Online'
p14
sba(iRSSItem
Item
p15
(dp16
g3
S'http://bato.to/read/_/280790/fujiyama-san-wa-shishunki_ch25'
p17
sg5
S'Fujiyama-san wa Shishunki - English - Ch.25 Read Online'
p18
sba(iRSSItem
Item
p19
(dp20
g3
S'http://bato.to/read/_/280052/gan-kon_v4_ch35'
p21
sg5
S'Gan-Kon - English - Vol.4 Ch.35: The Mirror of Truth'
p22
sba(iRSSItem
Item
p23
(dp24
g3
S'http://bato.to/read/_/280053/gan-kon_v4_ch36'
p25
sg5
S'Gan-Kon - English - Vol.4 Ch.36: A Needed God'
p26
sba(iRSSItem
Item
p27
(dp28
g3
S'http://bato.to/read/_/280976/gekkan-shoujo-nozaki-kun_ch56'
p29
sg5
S'Gekkan Shoujo Nozaki-kun - English - Ch.56 Read Online'
p30
sba(iRSSItem
Item
p31
(dp32
g3
S'http://bato.to/read/_/280132/illegal-rare_ch11'
p33
sg5
S'Illegal Rare - English - Ch.11: The Crossing, Part 2'
p34
sba(iRSSItem
Item
p35
(dp36
g3
S'http://bato.to/read/_/281155/karate-shoukoushi-kohinata-minoru_v26_ch280'
p37
sg5
S'Karate Shoukoushi Kohinata Minoru - English - Vol.26 Ch.280: All Out! Hamada vs Ibuki'
p38
sba(iRSSItem
Item
p39
(dp40
g3
S'http://bato.to/read/_/281009/kingdom_v38_ch408v2'
p41
sg5
S'Kingdom - English - Vol.38 Ch.408v2: The Decisive Year'
p42
sba(iRSSItem
Item
p43
(dp44
g3
S'http://bato.to/read/_/280557/koi-dano-ai-dano_v9_ch31'
p45
sg5
S'Koi dano Ai dano - English - Vol.9 Ch.31 Read Online'
p46
sba(iRSSItem
Item
p47
(dp48
g3
S'http://bato.to/read/_/280119/magi_ch244'
p49
sg5
S'Magi - English - Ch.244: The Black King Vessel'
p50
sba(iRSSItem
Item
p51
(dp52
g3
S'http://bato.to/read/_/280278/mill_v1_ch8'
p53
sg5
S'Mill - English - Vol.1 Ch.8: I Will Not Forget...'
p54
sba(iRSSItem
Item
p55
(dp56
g3
S'http://bato.to/read/_/280794/mister-ajikko_v4_ch29'
p57
sg5
S'Mister Ajikko - English - Vol.4 Ch.29: 3 Types of Patties'
p58
sba(iRSSItem
Item
p59
(dp60
g3
S'http://bato.to/read/_/280058/nisekoi_ch144'
p61
sg5
S'Nisekoi - English - Ch.144: Staying the Night'
p62
sba(iRSSItem
Item
p63
(dp64
g3
S'http://bato.to/read/_/281190/nisekoi_ch145'
p65
sg5
S'Nisekoi - English - Ch.145: Athletics'
p66
sba(iRSSItem
Item
p67
(dp68
g3
S'http://bato.to/read/_/280198/princess-lucia_ch32'
p69
sg5
S"Princess Lucia - English - Ch.32: It's Digging In!!"
p70
sba(iRSSItem
Item
p71
(dp72
g3
S'http://bato.to/read/_/280071/remonster_ch8'
p73
sg5
S'Re:Monster - English - Ch.8: read online'
p74
sba(iRSSItem
Item
p75
(dp76
g3
S'http://bato.to/read/_/280599/shokugeki-no-soma_ch92'
p77
sg5
S'Shokugeki no Soma - English - Ch.92: Firestarter'
p78
sba(iRSSItem
Item
p79
(dp80
g3
S'http://bato.to/read/_/280089/tonari-no-kashiwagi-san_ch60'
p81
sg5
S'Tonari no Kashiwagi-san - English - Ch.60 Read Online'
p82
sba(iRSSItem
Item
p83
(dp84
g3
S'http://bato.to/read/_/280348/trinity-seven_ch42'
p85
sg5
S'Trinity Seven - English - Ch.42 Read Online'
p86
sba(iRSSItem
Item
p87
(dp88
g3
S'http://bato.to/read/_/280385/tsuki-tsuki_ch34'
p89
sg5
S'Tsuki Tsuki! - English - Ch.34: I Want You to Notice Me... See Me... #2'
p90
sba(iRSSItem
Item
p91
(dp92
g3
S'http://bato.to/read/_/280387/tsuki-tsuki_ch35'
p93
sg5
S'Tsuki Tsuki! - English - Ch.35: I Want You to Notice Me... See Me... #3'
p94
sba(iRSSItem
Item
p95
(dp96
g3
S'http://bato.to/read/_/280741/unbreakable-machine-doll_ch43'
p97
sg5
S'Unbreakable Machine-Doll - English - Ch.43: ep.43 - A true wish. 3'
p98
sba(iRSSItem
Item
p99
(dp100
S'isRead'
p101
I01
sg3
S'http://bato.to/read/_/279905/assassination-classroom_ch105'
p102
sg5
S"Assassination Classroom - English - Ch.105: ''God of Death'' Time \xc2\xb7 5th Hour."
p103
sba.