(lp0
(iRSSItem
Item
p1
(dp2
S'read'
p3
I01
sS'old'
p4
I00
sS'link'
p5
S'http://bato.to/read/_/279905/assassination-classroom_ch105'
p6
sS'name'
p7
S"Assassination Classroom - English - Ch.105: ''God of Death'' Time \xc2\xb7 5th Hour."
p8
sba(iRSSItem
Item
p9
(dp10
g3
I01
sg4
I00
sg5
S'http://bato.to/read/_/280209/blood-lad_v9_ch43'
p11
sg7
S'Blood Lad - English - Vol.9 Ch.43 Read Online'
p12
sba(iRSSItem
Item
p13
(dp14
g3
I01
sg4
I00
sg5
S'http://bato.to/read/_/280803/blood-lad_v9_ch44'
p15
sg7
S'Blood Lad - English - Vol.9 Ch.44 Read Online'
p16
sba(iRSSItem
Item
p17
(dp18
g3
I01
sg4
I00
sg5
S'http://bato.to/read/_/281302/chat_v4_ch16'
p19
sg7
S'Chat - English - Vol.4 Ch.16 Read Online'
p20
sba(iRSSItem
Item
p21
(dp22
g3
I01
sg4
I00
sg5
S'http://bato.to/read/_/280790/fujiyama-san-wa-shishunki_ch25'
p23
sg7
S'Fujiyama-san wa Shishunki - English - Ch.25 Read Online'
p24
sba(iRSSItem
Item
p25
(dp26
g3
I01
sg4
I00
sg5
S'http://bato.to/read/_/280053/gan-kon_v4_ch36'
p27
sg7
S'Gan-Kon - English - Vol.4 Ch.36: A Needed God'
p28
sba(iRSSItem
Item
p29
(dp30
g3
I01
sg4
I00
sg5
S'http://bato.to/read/_/280976/gekkan-shoujo-nozaki-kun_ch56'
p31
sg7
S'Gekkan Shoujo Nozaki-kun - English - Ch.56 Read Online'
p32
sba(iRSSItem
Item
p33
(dp34
g3
I01
sg4
I00
sg5
S'http://bato.to/read/_/280132/illegal-rare_ch11'
p35
sg7
S'Illegal Rare - English - Ch.11: The Crossing, Part 2'
p36
sba(iRSSItem
Item
p37
(dp38
g3
I01
sg4
I00
sg5
S'http://bato.to/read/_/281155/karate-shoukoushi-kohinata-minoru_v26_ch280'
p39
sg7
S'Karate Shoukoushi Kohinata Minoru - English - Vol.26 Ch.280: All Out! Hamada vs Ibuki'
p40
sba(iRSSItem
Item
p41
(dp42
g3
I01
sg4
I00
sg5
S'http://bato.to/read/_/281009/kingdom_v38_ch408v2'
p43
sg7
S'Kingdom - English - Vol.38 Ch.408v2: The Decisive Year'
p44
sba(iRSSItem
Item
p45
(dp46
g3
I01
sg4
I00
sg5
S'http://bato.to/read/_/280557/koi-dano-ai-dano_v9_ch31'
p47
sg7
S'Koi dano Ai dano - English - Vol.9 Ch.31 Read Online'
p48
sba(iRSSItem
Item
p49
(dp50
g3
I01
sg4
I00
sg5
S'http://bato.to/read/_/280119/magi_ch244'
p51
sg7
S'Magi - English - Ch.244: The Black King Vessel'
p52
sba(iRSSItem
Item
p53
(dp54
g3
I01
sg4
I00
sg5
S'http://bato.to/read/_/280278/mill_v1_ch8'
p55
sg7
S'Mill - English - Vol.1 Ch.8: I Will Not Forget...'
p56
sba(iRSSItem
Item
p57
(dp58
g3
I01
sg4
I00
sg5
S'http://bato.to/read/_/280794/mister-ajikko_v4_ch29'
p59
sg7
S'Mister Ajikko - English - Vol.4 Ch.29: 3 Types of Patties'
p60
sba(iRSSItem
Item
p61
(dp62
g3
I01
sg4
I00
sg5
S'http://bato.to/read/_/280058/nisekoi_ch144'
p63
sg7
S'Nisekoi - English - Ch.144: Staying the Night'
p64
sba(iRSSItem
Item
p65
(dp66
g3
I01
sg4
I00
sg5
S'http://bato.to/read/_/281190/nisekoi_ch145'
p67
sg7
S'Nisekoi - English - Ch.145: Athletics'
p68
sba(iRSSItem
Item
p69
(dp70
g3
I01
sg4
I00
sg5
S'http://bato.to/read/_/280198/princess-lucia_ch32'
p71
sg7
S"Princess Lucia - English - Ch.32: It's Digging In!!"
p72
sba(iRSSItem
Item
p73
(dp74
g3
I01
sg4
I00
sg5
S'http://bato.to/read/_/280071/remonster_ch8'
p75
sg7
S'Re:Monster - English - Ch.8: read online'
p76
sba(iRSSItem
Item
p77
(dp78
g3
I01
sg4
I00
sg5
S'http://bato.to/read/_/280599/shokugeki-no-soma_ch92'
p79
sg7
S'Shokugeki no Soma - English - Ch.92: Firestarter'
p80
sba(iRSSItem
Item
p81
(dp82
g3
I01
sg4
I00
sg5
S'http://bato.to/read/_/281335/to-aru-kagaku-no-accelerator_ch10'
p83
sg7
S'To Aru Kagaku no Accelerator - English - Ch.10 Read Online'
p84
sba(iRSSItem
Item
p85
(dp86
g3
I01
sg4
I00
sg5
S'http://bato.to/read/_/280089/tonari-no-kashiwagi-san_ch60'
p87
sg7
S'Tonari no Kashiwagi-san - English - Ch.60 Read Online'
p88
sba(iRSSItem
Item
p89
(dp90
g3
I01
sg4
I00
sg5
S'http://bato.to/read/_/280348/trinity-seven_ch42'
p91
sg7
S'Trinity Seven - English - Ch.42 Read Online'
p92
sba(iRSSItem
Item
p93
(dp94
g3
I01
sg4
I00
sg5
S'http://bato.to/read/_/280385/tsuki-tsuki_ch34'
p95
sg7
S'Tsuki Tsuki! - English - Ch.34: I Want You to Notice Me... See Me... #2'
p96
sba(iRSSItem
Item
p97
(dp98
g3
I01
sg4
I00
sg5
S'http://bato.to/read/_/280387/tsuki-tsuki_ch35'
p99
sg7
S'Tsuki Tsuki! - English - Ch.35: I Want You to Notice Me... See Me... #3'
p100
sba(iRSSItem
Item
p101
(dp102
g3
I01
sg4
I00
sg5
S'http://bato.to/read/_/280741/unbreakable-machine-doll_ch43'
p103
sg7
S'Unbreakable Machine-Doll - English - Ch.43: ep.43 - A true wish. 3'
p104
sba.