(lp0
(iRSSItem
Item
p1
(dp2
S'old'
p3
I00
sS'link'
p4
S'http://www.explosm.net/comics/3719/'
p5
sS'name'
p6
S'10.21.2014'
p7
sba(iRSSItem
Item
p8
(dp9
g3
I00
sg4
S'http://www.explosm.net/comics/3720/'
p10
sg6
S'10.22.2014'
p11
sba(iRSSItem
Item
p12
(dp13
g3
I00
sg4
S'http://www.explosm.net/comics/3722/'
p14
sg6
S'10.24.2014'
p15
sba(iRSSItem
Item
p16
(dp17
g3
I00
sg4
S'http://www.explosm.net/comics/3723/'
p18
sg6
S'10.25.2014'
p19
sba(iRSSItem
Item
p20
(dp21
g3
I00
sg4
S'http://www.explosm.net/comics/3724/'
p22
sg6
S'10.26.2014'
p23
sba(iRSSItem
Item
p24
(dp25
g3
I00
sg4
S'http://www.explosm.net/comics/3725/'
p26
sg6
S'10.27.2014'
p27
sba(iRSSItem
Item
p28
(dp29
g3
I00
sg4
S'http://www.explosm.net/comics/3726/'
p30
sg6
S'10.28.2014'
p31
sba(iRSSItem
Item
p32
(dp33
g3
I00
sg4
S'http://www.explosm.net/comics/3727/'
p34
sg6
S'10.29.2014'
p35
sba(iRSSItem
Item
p36
(dp37
g3
I00
sg4
S'http://feedproxy.google.com/~r/LoveMeNice/~3/tbosltiFUkU/165.php'
p38
sg6
S'165-166'
p39
sba(iRSSItem
Item
p40
(dp41
g3
I00
sg4
S'http://feedproxy.google.com/~r/LoveMeNice/~3/jmiFS0ZjTjU/167.php'
p42
sg6
S'167-170'
p43
sba(iRSSItem
Item
p44
(dp45
g3
I00
sg4
S'http://feedproxy.google.com/~r/LoveMeNice/~3/TIDbObYeClw/171.php'
p46
sg6
S'171-173'
p47
sba(iRSSItem
Item
p48
(dp49
g3
I00
sg4
S'http://feedproxy.google.com/~r/LoveMeNice/~3/OMy7EOZYj10/174.php'
p50
sg6
S'174'
p51
sba(iRSSItem
Item
p52
(dp53
g3
I00
sg4
S'http://feedproxy.google.com/~r/LoveMeNice/~3/0f3Z3-bTBzw/175.php'
p54
sg6
S'175-177'
p55
sba(iRSSItem
Item
p56
(dp57
g3
I00
sg4
S'http://feedproxy.google.com/~r/LoveMeNice/~3/phjCiZxM1jc/178.php'
p58
sg6
S'178-181'
p59
sba(iRSSItem
Item
p60
(dp61
g3
I00
sg4
S'http://feedproxy.google.com/~r/LoveMeNice/~3/5jbHDxxZdHg/182.php'
p62
sg6
S'182-183'
p63
sba(iRSSItem
Item
p64
(dp65
g3
I00
sg4
S'http://feedproxy.google.com/~r/LoveMeNice/~3/T3-sVXhP69c/184.php'
p66
sg6
S'184-185'
p67
sba(iRSSItem
Item
p68
(dp69
g3
I00
sg4
S'http://feedproxy.google.com/~r/LoveMeNice/~3/ME-iKPn9e7k/186.php'
p70
sg6
S'186-188'
p71
sba(iRSSItem
Item
p72
(dp73
g3
I00
sg4
S'http://feedproxy.google.com/~r/LoveMeNice/~3/tm9vI_Ir16E/189.php'
p74
sg6
S'189'
p75
sba(iRSSItem
Item
p76
(dp77
g3
I00
sg4
S'http://nonadventures.com/2014/08/17/25k-page-3/'
p78
sg6
S'25K = Page 3!'
p79
sba(iRSSItem
Item
p80
(dp81
g3
I00
sg4
S'http://nonadventures.com/2014/09/03/30k-page-4/'
p82
sg6
S'30K = Page 4!'
p83
sba(iRSSItem
Item
p84
(dp85
g3
I00
sg4
S'http://www.exocomics.com/342'
p86
sg6
S'342'
p87
sba(iRSSItem
Item
p88
(dp89
g3
I00
sg4
S'http://www.exocomics.com/343'
p90
sg6
S'343'
p91
sba(iRSSItem
Item
p92
(dp93
g3
I00
sg4
S'http://www.exocomics.com/344'
p94
sg6
S'344'
p95
sba(iRSSItem
Item
p96
(dp97
g3
I00
sg4
S'http://www.exocomics.com/345'
p98
sg6
S'345'
p99
sba(iRSSItem
Item
p100
(dp101
g3
I00
sg4
S'http://www.exocomics.com/346'
p102
sg6
S'346'
p103
sba(iRSSItem
Item
p104
(dp105
g3
I00
sg4
S'http://www.exocomics.com/347'
p106
sg6
S'347'
p107
sba(iRSSItem
Item
p108
(dp109
g3
I00
sg4
S'http://www.exocomics.com/348'
p110
sg6
S'348'
p111
sba(iRSSItem
Item
p112
(dp113
g3
I00
sg4
S'http://www.exocomics.com/349'
p114
sg6
S'349'
p115
sba(iRSSItem
Item
p116
(dp117
g3
I00
sg4
S'http://www.exocomics.com/350'
p118
sg6
S'350'
p119
sba(iRSSItem
Item
p120
(dp121
g3
I00
sg4
S'http://www.exocomics.com/351'
p122
sg6
S'351'
p123
sba(iRSSItem
Item
p124
(dp125
g3
I00
sg4
S'http://completelyseriouscomics.com/?p=786'
p126
sg6
S'American Darren'
p127
sba(iRSSItem
Item
p128
(dp129
g3
I00
sg4
S'http://www.odoripark.com/2014/05/09/arigatou-gozaimess/'
p130
sg6
S'Arigatou Gozaimess'
p131
sba(iRSSItem
Item
p132
(dp133
g3
I00
sg4
S'http://www.odoripark.com/2014/08/25/artist-editions/'
p134
sg6
S'Artist Editions!'
p135
sba(iRSSItem
Item
p136
(dp137
g3
I00
sg4
S'http://bato.to/read/_/279905/assassination-classroom_ch105'
p138
sg6
S"Assassination Classroom - English - Ch.105: ''God of Death'' Time \xc2\xb7 5th Hour."
p139
sba(iRSSItem
Item
p140
(dp141
g3
I00
sg4
S'http://www.massivepwnage.com/10202014-barf/'
p142
sg6
S'Barf'
p143
sba(iRSSItem
Item
p144
(dp145
g3
I00
sg4
S'http://www.massivepwnage.com/10292014-batman-villains/'
p146
sg6
S'Batman Villains'
p147
sba(iRSSItem
Item
p148
(dp149
g3
I00
sg4
S'http://bullysbully.com/comic/bb4-pg37/'
p150
sg6
S'Bb4 Pg37'
p151
sba(iRSSItem
Item
p152
(dp153
g3
I00
sg4
S'http://bullysbully.com/comic/bb4-pg38/'
p154
sg6
S'Bb4 Pg38'
p155
sba(iRSSItem
Item
p156
(dp157
g3
I00
sg4
S'http://bullysbully.com/comic/bb4-pg39/'
p158
sg6
S'Bb4 Pg39'
p159
sba(iRSSItem
Item
p160
(dp161
g3
I00
sg4
S'http://bullysbully.com/comic/bb4-pg40/'
p162
sg6
S'Bb4 Pg40'
p163
sba(iRSSItem
Item
p164
(dp165
g3
I00
sg4
S'http://bato.to/read/_/280209/blood-lad_v9_ch43'
p166
sg6
S'Blood Lad - English - Vol.9 Ch.43 Read Online'
p167
sba(iRSSItem
Item
p168
(dp169
g3
I00
sg4
S'http://bato.to/read/_/280803/blood-lad_v9_ch44'
p170
sg6
S'Blood Lad - English - Vol.9 Ch.44 Read Online'
p171
sba(iRSSItem
Item
p172
(dp173
g3
I00
sg4
S'http://bullysbully.com/comic/bonus-3/'
p174
sg6
S'Bonus'
p175
sba(iRSSItem
Item
p176
(dp177
g3
I00
sg4
S'http://bullysbully.com/comic/bonus-2/'
p178
sg6
S'Bonus'
p179
sba(iRSSItem
Item
p180
(dp181
g3
I00
sg4
S'http://bullysbully.com/comic/bonus/'
p182
sg6
S'Bonus'
p183
sba(iRSSItem
Item
p184
(dp185
g3
I00
sg4
S'http://completelyseriouscomics.com/?p=781'
p186
sg6
S'Buttpunzel'
p187
sba(iRSSItem
Item
p188
(dp189
g3
I00
sg4
S'http://thepunchlineismachismo.com/archives/comic/can-we-do-war-with-skeletons-without-calling-it-the-skeleton-war'
p190
sg6
S'Can we do war with skeletons without calling it the skeleton war?'
p191
sba(iRSSItem
Item
p192
(dp193
g3
I00
sg4
S'http://bato.to/read/_/281302/chat_v4_ch16'
p194
sg6
S'Chat - English - Vol.4 Ch.16 Read Online'
p195
sba(iRSSItem
Item
p196
(dp197
g3
I00
sg4
S'http://www.cad-comic.com/cad/20141029/'
p198
sg6
S'Ctrl+Alt+Del: Analog and D-Pad 01.01'
p199
sba(iRSSItem
Item
p200
(dp201
g3
I00
sg4
S'http://www.cad-comic.com/cad/20141030/'
p202
sg6
S'Ctrl+Alt+Del: Analog and D-Pad 01.02'
p203
sba(iRSSItem
Item
p204
(dp205
g3
I00
sg4
S'http://www.cad-comic.com/cad/20141031/'
p206
sg6
S'Ctrl+Alt+Del: Analog and D-Pad 01.03'
p207
sba(iRSSItem
Item
p208
(dp209
g3
I00
sg4
S'http://www.cad-comic.com/cad/20141027/'
p210
sg6
S'Ctrl+Alt+Del: De-moba-lution'
p211
sba(iRSSItem
Item
p212
(dp213
g3
I00
sg4
S'http://www.cad-comic.com/cad/20141024/'
p214
sg6
S'Ctrl+Alt+Del: Pride'
p215
sba(iRSSItem
Item
p216
(dp217
g3
I00
sg4
S'http://www.cad-comic.com/cad/20141022/'
p218
sg6
S'Ctrl+Alt+Del: Pun-set Overdrive'
p219
sba(iRSSItem
Item
p220
(dp221
g3
I00
sg4
S'http://completelyseriouscomics.com/?p=792'
p222
sg6
S'Dentist'
p223
sba(iRSSItem
Item
p224
(dp225
g3
I00
sg4
S'http://www.massivepwnage.com/10012014-destiny/'
p226
sg6
S'Destiny'
p227
sba(iRSSItem
Item
p228
(dp229
g3
I00
sg4
S'http://www.massivepwnage.com/10062014-dragon-age/'
p230
sg6
S'Dragon Age'
p231
sba(iRSSItem
Item
p232
(dp233
g3
I00
sg4
S'http://completelyseriouscomics.com/?p=785'
p234
sg6
S'Enhance'
p235
sba(iRSSItem
Item
p236
(dp237
g3
I00
sg4
S'http://thepunchlineismachismo.com/archives/comic/every-simpsons-ever'
p238
sg6
S'Every Simpsons Ever.'
p239
sba(iRSSItem
Item
p240
(dp241
g3
I00
sg4
S'http://feedproxy.google.com/~r/FriedChickenAndSushi/~3/5W6X-zEdHec/fcs458-pick-a-club-with-passion.html'
p242
sg6
S'FCS458 Pick a club with passion!'
p243
sba(iRSSItem
Item
p244
(dp245
g3
I00
sg4
S'http://feedproxy.google.com/~r/FriedChickenAndSushi/~3/DuOOvSSh9VI/fcs459-i-choose-the-club-for-you.html'
p246
sg6
S'FCS459 I choose the club for you!'
p247
sba(iRSSItem
Item
p248
(dp249
g3
I00
sg4
S'http://feedproxy.google.com/~r/FriedChickenAndSushi/~3/QhwT7wsLfLA/fcs460-the-stereotypical-shot.html'
p250
sg6
S'FCS460 The stereotypical shot'
p251
sba(iRSSItem
Item
p252
(dp253
g3
I00
sg4
S'http://feedproxy.google.com/~r/FriedChickenAndSushi/~3/4raPT8WcqHw/fcs461-how-to-tip-in-japan.html'
p254
sg6
S'FCS461 How to tip in Japan'
p255
sba(iRSSItem
Item
p256
(dp257
g3
I00
sg4
S'http://feedproxy.google.com/~r/FriedChickenAndSushi/~3/xMe5wXPjnsE/fcs462-the-server-payback.html'
p258
sg6
S'FCS462 The server payback'
p259
sba(iRSSItem
Item
p260
(dp261
g3
I00
sg4
S'http://feedproxy.google.com/~r/FriedChickenAndSushi/~3/p9P-nHJFSR0/fcs463-does-she-date-foreigners.html'
p262
sg6
S'FCS463 Does she date foreigners?'
p263
sba(iRSSItem
Item
p264
(dp265
g3
I00
sg4
S'http://feedproxy.google.com/~r/FriedChickenAndSushi/~3/WrbUNUdsgAA/fcs464-the-first-tomoko-date.html'
p266
sg6
S'FCS464 The first Tomoko date'
p267
sba(iRSSItem
Item
p268
(dp269
g3
I00
sg4
S'http://feedproxy.google.com/~r/FriedChickenAndSushi/~3/OrVBEpTmPOM/fcs465-testing-out-ramen-with-tomoko.html'
p270
sg6
S'FCS465 Testing out ramen with Tomoko'
p271
sba(iRSSItem
Item
p272
(dp273
g3
I00
sg4
S'http://feedproxy.google.com/~r/FriedChickenAndSushi/~3/vXrDzIOOnns/fcs466-the-firstgoodbye.html'
p274
sg6
S'FCS466 The first...goodbye?'
p275
sba(iRSSItem
Item
p276
(dp277
g3
I00
sg4
S'http://feedproxy.google.com/~r/FriedChickenAndSushi/~3/sh4Myz0xdj8/fcs467-ariake-san-knows-how-it-works.html'
p278
sg6
S'FCS467 Ariake san knows how it works'
p279
sba(iRSSItem
Item
p280
(dp281
g3
I00
sg4
S'http://feedproxy.google.com/~r/FriedChickenAndSushi/~3/Do_A-0yvnHQ/fcs468-dont-let-the-shyness-fool-you.html'
p282
sg6
S"FCS468 Don't let the shyness fool you"
p283
sba(iRSSItem
Item
p284
(dp285
g3
I00
sg4
S'http://feedproxy.google.com/~r/FriedChickenAndSushi/~3/9Br-OQCjjgY/fcs469-visiting-the-anime-club.html'
p286
sg6
S'FCS469 Visiting the Anime club'
p287
sba(iRSSItem
Item
p288
(dp289
g3
I00
sg4
S'http://feedproxy.google.com/~r/FriedChickenAndSushi/~3/UnmrRUV5lqE/fcs470-teach-us-your-style.html'
p290
sg6
S'FCS470 Teach us your style!'
p291
sba(iRSSItem
Item
p292
(dp293
g3
I00
sg4
S'http://feedproxy.google.com/~r/FriedChickenAndSushi/~3/IdgbPi-GQO8/fcs471-why-not-a-second-date.html'
p294
sg6
S'FCS471 Why not a second date?'
p295
sba(iRSSItem
Item
p296
(dp297
g3
I00
sg4
S'http://feedproxy.google.com/~r/FriedChickenAndSushi/~3/Ivrd4ZsxfaQ/fcs472-no-kiss-on-the-run.html'
p298
sg6
S'FCS472 No kiss on the run'
p299
sba(iRSSItem
Item
p300
(dp301
g3
I00
sg4
S'http://www.awkwardzombie.com/index.php?comic=102714'
p302
sg6
S'Fired Emblem (Part1)'
p303
sba(iRSSItem
Item
p304
(dp305
g3
I00
sg4
S'http://bato.to/read/_/280790/fujiyama-san-wa-shishunki_ch25'
p306
sg6
S'Fujiyama-san wa Shishunki - English - Ch.25 Read Online'
p307
sba(iRSSItem
Item
p308
(dp309
g3
I00
sg4
S'http://bato.to/read/_/280053/gan-kon_v4_ch36'
p310
sg6
S'Gan-Kon - English - Vol.4 Ch.36: A Needed God'
p311
sba(iRSSItem
Item
p312
(dp313
g3
I00
sg4
S'http://bato.to/read/_/280976/gekkan-shoujo-nozaki-kun_ch56'
p314
sg6
S'Gekkan Shoujo Nozaki-kun - English - Ch.56 Read Online'
p315
sba(iRSSItem
Item
p316
(dp317
g3
I00
sg4
S'http://www.massivepwnage.com/10082014-genies-and-wishes/'
p318
sg6
S'Genies and Wishes'
p319
sba(iRSSItem
Item
p320
(dp321
g3
I00
sg4
S'http://thepunchlineismachismo.com/archives/comic/he-just-did-it-to-be-dramatic'
p322
sg6
S'He just did it to be dramatic'
p323
sba(iRSSItem
Item
p324
(dp325
g3
I00
sg4
S'http://bato.to/read/_/280132/illegal-rare_ch11'
p326
sg6
S'Illegal Rare - English - Ch.11: The Crossing, Part 2'
p327
sba(iRSSItem
Item
p328
(dp329
g3
I00
sg4
S'http://thepunchlineismachismo.com/archives/comic/ill-show-you-old-man'
p330
sg6
S'I\xe2\x80\x99ll show you old man'
p331
sba(iRSSItem
Item
p332
(dp333
g3
I00
sg4
S'http://nonadventures.com/2014/08/01/kickstarters-a-go/'
p334
sg6
S'KICKSTARTER\xe2\x80\x99S A GO!'
p335
sba(iRSSItem
Item
p336
(dp337
g3
I00
sg4
S'http://bato.to/read/_/281155/karate-shoukoushi-kohinata-minoru_v26_ch280'
p338
sg6
S'Karate Shoukoushi Kohinata Minoru - English - Vol.26 Ch.280: All Out! Hamada vs Ibuki'
p339
sba(iRSSItem
Item
p340
(dp341
g3
I00
sg4
S'http://bato.to/read/_/281009/kingdom_v38_ch408v2'
p342
sg6
S'Kingdom - English - Vol.38 Ch.408v2: The Decisive Year'
p343
sba(iRSSItem
Item
p344
(dp345
g3
I00
sg4
S'http://bato.to/read/_/280557/koi-dano-ai-dano_v9_ch31'
p346
sg6
S'Koi dano Ai dano - English - Vol.9 Ch.31 Read Online'
p347
sba(iRSSItem
Item
p348
(dp349
g3
I00
sg4
S'http://www.massivepwnage.com/10152014-lightning-powers/'
p350
sg6
S'Lightning Powers'
p351
sba(iRSSItem
Item
p352
(dp353
g3
I00
sg4
S'http://www.johnnywander.com/comics/607'
p354
sg6
S'Lucky Penny - 158'
p355
sba(iRSSItem
Item
p356
(dp357
g3
I00
sg4
S'http://www.johnnywander.com/comics/608'
p358
sg6
S'Lucky Penny - 159'
p359
sba(iRSSItem
Item
p360
(dp361
g3
I00
sg4
S'http://www.johnnywander.com/comics/609'
p362
sg6
S'Lucky Penny - 160'
p363
sba(iRSSItem
Item
p364
(dp365
g3
I00
sg4
S'http://www.johnnywander.com/comics/610'
p366
sg6
S'Lucky Penny - 161'
p367
sba(iRSSItem
Item
p368
(dp369
g3
I00
sg4
S'http://www.johnnywander.com/comics/611'
p370
sg6
S'Lucky Penny - 162'
p371
sba(iRSSItem
Item
p372
(dp373
g3
I00
sg4
S'http://www.johnnywander.com/comics/612'
p374
sg6
S'Lucky Penny - 163'
p375
sba(iRSSItem
Item
p376
(dp377
g3
I00
sg4
S'http://www.johnnywander.com/comics/613'
p378
sg6
S'Lucky Penny - 164'
p379
sba(iRSSItem
Item
p380
(dp381
g3
I00
sg4
S'http://www.johnnywander.com/comics/614'
p382
sg6
S'Lucky Penny - 165'
p383
sba(iRSSItem
Item
p384
(dp385
g3
I00
sg4
S'http://www.johnnywander.com/comics/615'
p386
sg6
S'Lucky Penny - 166'
p387
sba(iRSSItem
Item
p388
(dp389
g3
I00
sg4
S'http://www.johnnywander.com/comics/616'
p390
sg6
S'Lucky Penny - 167'
p391
sba(iRSSItem
Item
p392
(dp393
g3
I00
sg4
S'http://bato.to/read/_/280119/magi_ch244'
p394
sg6
S'Magi - English - Ch.244: The Black King Vessel'
p395
sba(iRSSItem
Item
p396
(dp397
g3
I00
sg4
S'http://www.odoripark.com/2014/05/15/mecaf-map/'
p398
sg6
S'MeCAF Map'
p399
sba(iRSSItem
Item
p400
(dp401
g3
I00
sg4
S'http://www.odoripark.com/2014/05/19/mecaftermath/'
p402
sg6
S'MeCAFtermath'
p403
sba(iRSSItem
Item
p404
(dp405
g3
I00
sg4
S'http://bato.to/read/_/280278/mill_v1_ch8'
p406
sg6
S'Mill - English - Vol.1 Ch.8: I Will Not Forget...'
p407
sba(iRSSItem
Item
p408
(dp409
g3
I00
sg4
S'http://completelyseriouscomics.com/?p=788'
p410
sg6
S'Mind Your Manners'
p411
sba(iRSSItem
Item
p412
(dp413
g3
I00
sg4
S'http://bato.to/read/_/280794/mister-ajikko_v4_ch29'
p414
sg6
S'Mister Ajikko - English - Vol.4 Ch.29: 3 Types of Patties'
p415
sba(iRSSItem
Item
p416
(dp417
g3
I00
sg4
S'http://www.odoripark.com/2014/09/05/more-artist-editions/'
p418
sg6
S'More Artist Editions'
p419
sba(iRSSItem
Item
p420
(dp421
g3
I00
sg4
S'http://bullysbully.com/comic/mummystale-cover-2/'
p422
sg6
S'MummysTale Cover'
p423
sba(iRSSItem
Item
p424
(dp425
g3
I00
sg4
S'http://bullysbully.com/comic/mummystale-pg01-2/'
p426
sg6
S'MummysTale Pg01'
p427
sba(iRSSItem
Item
p428
(dp429
g3
I00
sg4
S'http://bullysbully.com/comic/mummystale-pg02-2/'
p430
sg6
S'MummysTale Pg02'
p431
sba(iRSSItem
Item
p432
(dp433
g3
I00
sg4
S'http://thepunchlineismachismo.com/archives/comic/my-canadian-sensibilities-were-not-made-for-this-city'
p434
sg6
S'My Canadian sensibilities were not made for this city'
p435
sba(iRSSItem
Item
p436
(dp437
g3
I00
sg4
S'http://www.cad-comic.com/cad/20141024/#n2647'
p438
sg6
S'News: Civilization Beyond Earth'
p439
sba(iRSSItem
Item
p440
(dp441
g3
I00
sg4
S'http://www.cad-comic.com/cad/20141020/#n2644'
p442
sg6
S'News: Comic Work: Cutting Panels'
p443
sba(iRSSItem
Item
p444
(dp445
g3
I00
sg4
S'http://www.cad-comic.com/cad/20141027/#n2648'
p446
sg6
S'News: De-moba-lution'
p447
sba(iRSSItem
Item
p448
(dp449
g3
I00
sg4
S'http://www.cad-comic.com/cad/20141020/#n2642'
p450
sg6
S'News: Hatred'
p451
sba(iRSSItem
Item
p452
(dp453
g3
I00
sg4
S'http://www.cad-comic.com/cad/20141020/#n2643'
p454
sg6
S'News: Hatred, part 2'
p455
sba(iRSSItem
Item
p456
(dp457
g3
I00
sg4
S'http://www.cad-comic.com/cad/20141022/#n2645'
p458
sg6
S'News: Heroes of the Storm'
p459
sba(iRSSItem
Item
p460
(dp461
g3
I00
sg4
S'http://www.cad-comic.com/cad/20141029/#n2650'
p462
sg6
S'News: Issue 01'
p463
sba(iRSSItem
Item
p464
(dp465
g3
I00
sg4
S'http://www.cad-comic.com/cad/20141027/#n2649'
p466
sg6
S'News: The Reboot'
p467
sba(iRSSItem
Item
p468
(dp469
g3
I00
sg4
S'http://www.cad-comic.com/cad/20141022/#n2646'
p470
sg6
S'News: Upcoming Reboot'
p471
sba(iRSSItem
Item
p472
(dp473
g3
I00
sg4
S'http://bato.to/read/_/280058/nisekoi_ch144'
p474
sg6
S'Nisekoi - English - Ch.144: Staying the Night'
p475
sba(iRSSItem
Item
p476
(dp477
g3
I00
sg4
S'http://bato.to/read/_/281190/nisekoi_ch145'
p478
sg6
S'Nisekoi - English - Ch.145: Athletics'
p479
sba(iRSSItem
Item
p480
(dp481
g3
I00
sg4
S'http://completelyseriouscomics.com/?p=783'
p482
sg6
S'No It\xe2\x80\x99s Not'
p483
sba(iRSSItem
Item
p484
(dp485
g3
I00
sg4
S'http://www.massivepwnage.com/10222014-no-refunds/'
p486
sg6
S'No Refunds'
p487
sba(iRSSItem
Item
p488
(dp489
g3
I00
sg4
S'http://www.odoripark.com/2014/05/13/off-to-the-printers/'
p490
sg6
S'Off to the Printers!'
p491
sba(iRSSItem
Item
p492
(dp493
g3
I00
sg4
S'http://www.massivepwnage.com/10272014-boost-fps/'
p494
sg6
S'One Weird Trick to Boost FPS'
p495
sba(iRSSItem
Item
p496
(dp497
g3
I00
sg4
S'http://nonadventures.com/2014/08/03/origin-preview-page-1/'
p498
sg6
S'Origin Preview Page 1'
p499
sba(iRSSItem
Item
p500
(dp501
g3
I00
sg4
S'http://nonadventures.com/2014/08/03/origin-story-page-1/'
p502
sg6
S'Origin Story: Page 1'
p503
sba(iRSSItem
Item
p504
(dp505
g3
I00
sg4
S'http://nonadventures.com/2014/08/05/origin-story-page-2/'
p506
sg6
S'Origin Story: Page 2'
p507
sba(iRSSItem
Item
p508
(dp509
g3
I00
sg4
S'http://nonadventures.com/2014/08/17/origin-story-page-3/'
p510
sg6
S'Origin Story: Page 3'
p511
sba(iRSSItem
Item
p512
(dp513
g3
I00
sg4
S'http://nonadventures.com/2014/09/03/origin-story-page-4/'
p514
sg6
S'Origin Story: Page 4'
p515
sba(iRSSItem
Item
p516
(dp517
g3
I00
sg4
S'http://www.straysonline.com/2014/08/page-330/'
p518
sg6
S'Page 330'
p519
sba(iRSSItem
Item
p520
(dp521
g3
I00
sg4
S'http://www.straysonline.com/2014/08/page-331/'
p522
sg6
S'Page 331'
p523
sba(iRSSItem
Item
p524
(dp525
g3
I00
sg4
S'http://www.straysonline.com/2014/08/page-332/'
p526
sg6
S'Page 332'
p527
sba(iRSSItem
Item
p528
(dp529
g3
I00
sg4
S'http://www.straysonline.com/2014/09/page-333/'
p530
sg6
S'Page 333'
p531
sba(iRSSItem
Item
p532
(dp533
g3
I00
sg4
S'http://www.straysonline.com/2014/09/page-334/'
p534
sg6
S'Page 334'
p535
sba(iRSSItem
Item
p536
(dp537
g3
I00
sg4
S'http://www.straysonline.com/2014/09/page-335/'
p538
sg6
S'Page 335'
p539
sba(iRSSItem
Item
p540
(dp541
g3
I00
sg4
S'http://www.straysonline.com/2014/09/page-336/'
p542
sg6
S'Page 336'
p543
sba(iRSSItem
Item
p544
(dp545
g3
I00
sg4
S'http://www.straysonline.com/2014/10/page-337/'
p546
sg6
S'Page 337'
p547
sba(iRSSItem
Item
p548
(dp549
g3
I00
sg4
S'http://www.straysonline.com/2014/10/page-338/'
p550
sg6
S'Page 338'
p551
sba(iRSSItem
Item
p552
(dp553
g3
I00
sg4
S'http://www.straysonline.com/2014/10/page-339/'
p554
sg6
S'Page 339'
p555
sba(iRSSItem
Item
p556
(dp557
g3
I00
sg4
S'http://bato.to/read/_/280198/princess-lucia_ch32'
p558
sg6
S"Princess Lucia - English - Ch.32: It's Digging In!!"
p559
sba(iRSSItem
Item
p560
(dp561
g3
I00
sg4
S'http://www.odoripark.com/2014/05/23/printers-proof/'
p562
sg6
S'Printer\xe2\x80\x99s Proof'
p563
sba(iRSSItem
Item
p564
(dp565
g3
I00
sg4
S'http://completelyseriouscomics.com/?p=793'
p566
sg6
S'Puppets'
p567
sba(iRSSItem
Item
p568
(dp569
g3
I00
sg4
S'http://bato.to/read/_/280071/remonster_ch8'
p570
sg6
S'Re:Monster - English - Ch.8: read online'
p571
sba(iRSSItem
Item
p572
(dp573
g3
I00
sg4
S'http://bato.to/read/_/280599/shokugeki-no-soma_ch92'
p574
sg6
S'Shokugeki no Soma - English - Ch.92: Firestarter'
p575
sba(iRSSItem
Item
p576
(dp577
g3
I00
sg4
S'http://explosm.net/show/episode/115/staring-contest/autoplay'
p578
sg6
S'Short: Staring Contest'
p579
sba(iRSSItem
Item
p580
(dp581
g3
I00
sg4
S'http://explosm.net/show/episode/116/werewolf/autoplay'
p582
sg6
S'Short: Werewolf'
p583
sba(iRSSItem
Item
p584
(dp585
g3
I00
sg4
S'http://completelyseriouscomics.com/?p=790'
p586
sg6
S'Shorties'
p587
sba(iRSSItem
Item
p588
(dp589
g3
I00
sg4
S'http://completelyseriouscomics.com/?p=795'
p590
sg6
S'Skele-Men'
p591
sba(iRSSItem
Item
p592
(dp593
g3
I00
sg4
S'http://completelyseriouscomics.com/?p=779'
p594
sg6
S'Smash Brothers'
p595
sba(iRSSItem
Item
p596
(dp597
g3
I00
sg4
S'http://thepunchlineismachismo.com/archives/comic/sometimes-i-just-like-thinking-of-these-games-from-edgeworths-point-of-view'
p598
sg6
S'Sometimes I just like thinking of these games from Edgeworth\xe2\x80\x99s Point of View'
p599
sba(iRSSItem
Item
p600
(dp601
g3
I00
sg4
S'http://www.spinnyverse.com/index.php?id=623'
p602
sg6
S'Spinnerette - ..'
p603
sba(iRSSItem
Item
p604
(dp605
g3
I00
sg4
S'http://www.spinnyverse.com/index.php?id=622'
p606
sg6
S'Spinnerette - ..'
p607
sba(iRSSItem
Item
p608
(dp609
g3
I00
sg4
S'http://www.spinnyverse.com/index.php?id=621'
p610
sg6
S'Spinnerette - ..'
p611
sba(iRSSItem
Item
p612
(dp613
g3
I00
sg4
S'http://www.spinnyverse.com/index.php?id=620'
p614
sg6
S'Spinnerette - ..'
p615
sba(iRSSItem
Item
p616
(dp617
g3
I00
sg4
S'http://www.spinnyverse.com/index.php?id=619'
p618
sg6
S'Spinnerette - ..'
p619
sba(iRSSItem
Item
p620
(dp621
g3
I00
sg4
S'http://www.spinnyverse.com/index.php?id=618'
p622
sg6
S'Spinnerette - ..'
p623
sba(iRSSItem
Item
p624
(dp625
g3
I00
sg4
S'http://www.spinnyverse.com/index.php?id=617'
p626
sg6
S'Spinnerette - ..'
p627
sba(iRSSItem
Item
p628
(dp629
g3
I00
sg4
S'http://www.spinnyverse.com/index.php?id=616'
p630
sg6
S'Spinnerette - ..'
p631
sba(iRSSItem
Item
p632
(dp633
g3
I00
sg4
S'http://www.spinnyverse.com/index.php?id=615'
p634
sg6
S'Spinnerette - ..'
p635
sba(iRSSItem
Item
p636
(dp637
g3
I00
sg4
S'http://www.spinnyverse.com/index.php?id=614'
p638
sg6
S'Spinnerette - ..'
p639
sba(iRSSItem
Item
p640
(dp641
g3
I00
sg4
S'http://www.spinnyverse.com/index.php?id=613'
p642
sg6
S'Spinnerette - ..'
p643
sba(iRSSItem
Item
p644
(dp645
g3
I00
sg4
S'http://www.spinnyverse.com/index.php?id=612'
p646
sg6
S'Spinnerette - ..'
p647
sba(iRSSItem
Item
p648
(dp649
g3
I00
sg4
S'http://www.spinnyverse.com/index.php?id=611'
p650
sg6
S'Spinnerette - ..'
p651
sba(iRSSItem
Item
p652
(dp653
g3
I00
sg4
S'http://www.spinnyverse.com/index.php?id=609'
p654
sg6
S'Spinnerette - ..'
p655
sba(iRSSItem
Item
p656
(dp657
g3
I00
sg4
S'http://www.spinnyverse.com/index.php?id=608'
p658
sg6
S'Spinnerette - ..'
p659
sba(iRSSItem
Item
p660
(dp661
g3
I00
sg4
S'http://www.spinnyverse.com/index.php?id=606'
p662
sg6
S'Spinnerette - ..'
p663
sba(iRSSItem
Item
p664
(dp665
g3
I00
sg4
S'http://www.spinnyverse.com/index.php?id=605'
p666
sg6
S'Spinnerette - ..'
p667
sba(iRSSItem
Item
p668
(dp669
g3
I00
sg4
S'http://www.spinnyverse.com/index.php?id=604'
p670
sg6
S'Spinnerette - ..'
p671
sba(iRSSItem
Item
p672
(dp673
g3
I00
sg4
S'http://www.spinnyverse.com/index.php?id=610'
p674
sg6
S'Spinnerette - AWA!'
p675
sba(iRSSItem
Item
p676
(dp677
g3
I00
sg4
S'http://www.spinnyverse.com/index.php?id=607'
p678
sg6
S'Spinnerette - Kickstarter is live!'
p679
sba(iRSSItem
Item
p680
(dp681
g3
I00
sg4
S'http://nonadventures.com/2014/08/10/stickers/'
p682
sg6
S'Stickers!'
p683
sba(iRSSItem
Item
p684
(dp685
g3
I00
sg4
S'http://www.massivepwnage.com/10132014-superpowers-are-hard/'
p686
sg6
S'Superpowers are Hard'
p687
sba(iRSSItem
Item
p688
(dp689
g3
I00
sg4
S'http://www.odoripark.com/2014/07/02/the-books-are-in/'
p690
sg6
S'The Books Are IN!!'
p691
sba(iRSSItem
Item
p692
(dp693
g3
I00
sg4
S'http://www.odoripark.com/2014/07/16/the-latest-of-staus-of-the-op-omnibus/'
p694
sg6
S'The Latest of Staus (of the OP Omnibus)'
p695
sba(iRSSItem
Item
p696
(dp697
g3
I00
sg4
S'http://www.odoripark.com/2014/05/01/the-omnibus-kickstarter-passed-its-goal/'
p698
sg6
S'The Omnibus Kickstarter Passed Its Goal'
p699
sba(iRSSItem
Item
p700
(dp701
g3
I00
sg4
S'http://thepunchlineismachismo.com/archives/comic/the-more-i-think-about-this-the-more-sense-it-makes'
p702
sg6
S'The more I think about this the more sense it makes'
p703
sba(iRSSItem
Item
p704
(dp705
g3
I00
sg4
S'http://thepunchlineismachismo.com/archives/comic/the-straw-that-broke-the-robocamels-exoskeleton'
p706
sg6
S'The straw that broke the robocamel\xe2\x80\x99s exoskeleton'
p707
sba(iRSSItem
Item
p708
(dp709
g3
I00
sg4
S'http://thepunchlineismachismo.com/archives/comic/theese-things-are-like-ikea-furnitutre-i-can-never-get-them-back-in-the-package'
p710
sg6
S'These things are like Ikea furniture, I can never get them back in the package'
p711
sba(iRSSItem
Item
p712
(dp713
g3
I00
sg4
S'http://bato.to/read/_/281335/to-aru-kagaku-no-accelerator_ch10'
p714
sg6
S'To Aru Kagaku no Accelerator - English - Ch.10 Read Online'
p715
sba(iRSSItem
Item
p716
(dp717
g3
I00
sg4
S'http://bato.to/read/_/280089/tonari-no-kashiwagi-san_ch60'
p718
sg6
S'Tonari no Kashiwagi-san - English - Ch.60 Read Online'
p719
sba(iRSSItem
Item
p720
(dp721
g3
I00
sg4
S'http://bato.to/read/_/280348/trinity-seven_ch42'
p722
sg6
S'Trinity Seven - English - Ch.42 Read Online'
p723
sba(iRSSItem
Item
p724
(dp725
g3
I00
sg4
S'http://bato.to/read/_/280385/tsuki-tsuki_ch34'
p726
sg6
S'Tsuki Tsuki! - English - Ch.34: I Want You to Notice Me... See Me... #2'
p727
sba(iRSSItem
Item
p728
(dp729
g3
I00
sg4
S'http://bato.to/read/_/280387/tsuki-tsuki_ch35'
p730
sg6
S'Tsuki Tsuki! - English - Ch.35: I Want You to Notice Me... See Me... #3'
p731
sba(iRSSItem
Item
p732
(dp733
g3
I00
sg4
S'http://bato.to/read/_/280741/unbreakable-machine-doll_ch43'
p734
sg6
S'Unbreakable Machine-Doll - English - Ch.43: ep.43 - A true wish. 3'
p735
sba(iRSSItem
Item
p736
(dp737
g3
I00
sg4
S'http://nonadventures.com/2014/10/18/update-on-things/'
p738
sg6
S'Update on things'
p739
sba(iRSSItem
Item
p740
(dp741
g3
I00
sg4
S'http://www.vampirecheerleaders.net/strips-vc/2433'
p742
sg6
S'Vampire Cheerleaders - Age is a Number'
p743
sba(iRSSItem
Item
p744
(dp745
g3
I00
sg4
S'http://www.vampirecheerleaders.net/strips-vc/2425'
p746
sg6
S'Vampire Cheerleaders - All Lead To This'
p747
sba(iRSSItem
Item
p748
(dp749
g3
I00
sg4
S'http://www.vampirecheerleaders.net/strips-vc/2431'
p750
sg6
S'Vampire Cheerleaders - Costume Change'
p751
sba(iRSSItem
Item
p752
(dp753
g3
I00
sg4
S'http://www.vampirecheerleaders.net/strips-vc/2427'
p754
sg6
S'Vampire Cheerleaders - Lizard Pyramid'
p755
sba(iRSSItem
Item
p756
(dp757
g3
I00
sg4
S'http://www.vampirecheerleaders.net/strips-vc/2426'
p758
sg6
S'Vampire Cheerleaders - Morning Selfie'
p759
sba(iRSSItem
Item
p760
(dp761
g3
I00
sg4
S'http://www.vampirecheerleaders.net/strips-vc/2428'
p762
sg6
S'Vampire Cheerleaders - Mothmen vs Reptilians'
p763
sba(iRSSItem
Item
p764
(dp765
g3
I00
sg4
S'http://www.vampirecheerleaders.net/strips-vc/2430'
p766
sg6
S'Vampire Cheerleaders - Mothy Transformation'
p767
sba(iRSSItem
Item
p768
(dp769
g3
I00
sg4
S'http://www.vampirecheerleaders.net/strips-vc/2434'
p770
sg6
S'Vampire Cheerleaders - Queen Bee and Moth Queen'
p771
sba(iRSSItem
Item
p772
(dp773
g3
I00
sg4
S'http://www.vampirecheerleaders.net/strips-vc/2429'
p774
sg6
S'Vampire Cheerleaders - Reptilian Counterattack'
p775
sba(iRSSItem
Item
p776
(dp777
g3
I00
sg4
S'http://www.vampirecheerleaders.net/strips-vc/2432'
p778
sg6
S'Vampire Cheerleaders - Stand Our Ground'
p779
sba(iRSSItem
Item
p780
(dp781
g3
I00
sg4
S'http://www.rice-boy.com/vattu/index.php?c=592'
p782
sg6
S'Vattu updated'
p783
sba(iRSSItem
Item
p784
(dp785
g3
I00
sg4
S'http://www.everblue-comic.com/?id=205'
p786
sg6
S'Vol1 Ch4 Page 10'
p787
sba(iRSSItem
Item
p788
(dp789
g3
I00
sg4
S'http://www.everblue-comic.com/?id=206'
p790
sg6
S'Vol1 Ch4 Page 11'
p791
sba(iRSSItem
Item
p792
(dp793
g3
I00
sg4
S'http://www.everblue-comic.com/?id=207'
p794
sg6
S'Vol1 Ch4 Page 12'
p795
sba(iRSSItem
Item
p796
(dp797
g3
I00
sg4
S'http://www.everblue-comic.com/?id=208'
p798
sg6
S'Vol1 Ch4 Page 13'
p799
sba(iRSSItem
Item
p800
(dp801
g3
I00
sg4
S'http://www.everblue-comic.com/?id=209'
p802
sg6
S'Vol1 Ch4 Page 14'
p803
sba(iRSSItem
Item
p804
(dp805
g3
I00
sg4
S'http://www.everblue-comic.com/?id=210'
p806
sg6
S'Vol1 Ch4 Page 15'
p807
sba(iRSSItem
Item
p808
(dp809
g3
I00
sg4
S'http://www.everblue-comic.com/?id=211'
p810
sg6
S'Vol1 Ch4 Page 16'
p811
sba(iRSSItem
Item
p812
(dp813
g3
I00
sg4
S'http://www.everblue-comic.com/?id=212'
p814
sg6
S'Vol1 Ch4 Page 17'
p815
sba(iRSSItem
Item
p816
(dp817
g3
I00
sg4
S'http://www.everblue-comic.com/?id=203'
p818
sg6
S'Vol1 Ch4 Page 8'
p819
sba(iRSSItem
Item
p820
(dp821
g3
I00
sg4
S'http://www.everblue-comic.com/?id=204'
p822
sg6
S'Vol1 Ch4 Page 9'
p823
sba(iRSSItem
Item
p824
(dp825
g3
I00
sg4
S'http://www.awkwardzombie.com/index.php?comic=102014'
p826
sg6
S'Weight Here'
p827
sba(iRSSItem
Item
p828
(dp829
g3
I00
sg4
S'http://www.massivepwnage.com/09292014-weve-come-so-far/'
p830
sg6
S'We\xe2\x80\x99ve Come So Far'
p831
sba(iRSSItem
Item
p832
(dp833
g3
I00
sg4
S'http://thepunchlineismachismo.com/archives/comic/you-are-aware-of-how-marine-mammals-work-right'
p834
sg6
S'you are aware of how marine mammals work, right?'
p835
sba(iRSSItem
Item
p836
(dp837
S'read'
p838
I01
sg3
I00
sg4
S'http://sinfest.net/archive_page.php?comicID=5014'
p839
sg6
S'"Devil Tech Headquarters 2" - Thu, 29 May 2014'
p840
sba.